; Function Attrs: mustprogress uwtable
define hidden void @_ZN19OpenColorIO_v2_4dev18Lut3DTransformImpl8setValueEmmmfff(ptr noundef nonnull align 8 dereferenceable(240) %this, i64 noundef %indexR, i64 noundef %indexG, i64 noundef %indexB, float noundef %r, float noundef %g, float noundef %b) unnamed_addr #3 align 2 {
entry:
  %vtable = load ptr, ptr %this, align 8
  %vfn = getelementptr inbounds i8, ptr %vtable, i64 96
  %0 = load ptr, ptr %vfn, align 8
  %call = tail call noundef i64 %0(ptr noundef nonnull align 8 dereferenceable(240) %this)
  tail call fastcc void @_ZN19OpenColorIO_v2_4dev12_GLOBAL__N_115CheckLUT3DIndexEPKcS2_mm(ptr noundef nonnull @.str.1, ptr noundef nonnull @_ZN19OpenColorIO_v2_4dev12_GLOBAL__N_111COMPONENT_RE, i64 noundef %indexR, i64 noundef %call)
  tail call fastcc void @_ZN19OpenColorIO_v2_4dev12_GLOBAL__N_115CheckLUT3DIndexEPKcS2_mm(ptr noundef nonnull @.str.1, ptr noundef nonnull @_ZN19OpenColorIO_v2_4dev12_GLOBAL__N_111COMPONENT_GE, i64 noundef %indexG, i64 noundef %call)
  tail call fastcc void @_ZN19OpenColorIO_v2_4dev12_GLOBAL__N_115CheckLUT3DIndexEPKcS2_mm(ptr noundef nonnull @.str.1, ptr noundef nonnull @_ZN19OpenColorIO_v2_4dev12_GLOBAL__N_111COMPONENT_BE, i64 noundef %indexB, i64 noundef %call)
  %mul = mul i64 %call, %indexR
  %add = add i64 %mul, %indexG
  %mul2 = mul i64 %add, %call
  %add3 = add i64 %mul2, %indexB
  %mul4 = mul i64 %add3, 3
  %m_data.i = getelementptr inbounds i8, ptr %this, i64 208
  %1 = load ptr, ptr %m_data.i, align 8
  %add.ptr.i.i = getelementptr inbounds float, ptr %1, i64 %mul4
  store float %r, ptr %add.ptr.i.i, align 4
  %2 = load ptr, ptr %m_data.i, align 8
  %3 = getelementptr float, ptr %2, i64 %mul4
  %add.ptr.i.i12 = getelementptr i8, ptr %3, i64 4
  store float %g, ptr %add.ptr.i.i12, align 4
  %4 = load ptr, ptr %m_data.i, align 8
  %5 = getelementptr float, ptr %4, i64 %mul4
  %add.ptr.i.i15 = getelementptr i8, ptr %5, i64 8
  store float %b, ptr %add.ptr.i.i15, align 4
  ret void
}